target datalayout = "e-m:e-p270:32:32-p271:32:32-p272:64:64-i64:64-i128:128-f80:128-n8:16:32:64-S128"
target triple = "x86_64-pc-linux-gnu"

@.str = private unnamed_addr constant [2 x i8] c" \00", align 1
@.str.31 = private unnamed_addr constant [44 x i8] c"%sData type: PMIX_INT64\09Value: NULL pointer\00", align 1
@.str.32 = private unnamed_addr constant [35 x i8] c"%sData type: PMIX_INT64\09Value: %ld\00", align 1

; Function Attrs: nounwind uwtable
define i32 @pmix20_bfrop_print_int64(ptr noundef %0, ptr noundef %1, ptr noundef %2, i16 noundef zeroext %3) #0 {
  %5 = alloca i32, align 4
  %6 = alloca ptr, align 8
  %7 = alloca ptr, align 8
  %8 = alloca ptr, align 8
  %9 = alloca i16, align 2
  %10 = alloca ptr, align 8
  %11 = alloca i32, align 4
  store ptr %0, ptr %6, align 8, !tbaa !3
  store ptr %1, ptr %7, align 8, !tbaa !8
  store ptr %2, ptr %8, align 8, !tbaa !33
  store i16 %3, ptr %9, align 2, !tbaa !11
  call void @llvm.lifetime.start.p0(i64 8, ptr %10) #7
  %12 = load ptr, ptr %7, align 8, !tbaa !8
  %13 = icmp eq ptr null, %12
  br i1 %13, label %14, label %19

14:                                               ; preds = %4
  %15 = call i32 (ptr, ptr, ...) @asprintf(ptr noundef %10, ptr noundef @.str) #7
  %16 = icmp sgt i32 0, %15
  br i1 %16, label %17, label %18

17:                                               ; preds = %14
  store i32 -32, ptr %5, align 4
  store i32 1, ptr %11, align 4
  br label %64

18:                                               ; preds = %14
  br label %21

19:                                               ; preds = %4
  %20 = load ptr, ptr %7, align 8, !tbaa !8
  store ptr %20, ptr %10, align 8, !tbaa !8
  br label %21

21:                                               ; preds = %19, %18
  %22 = load ptr, ptr %8, align 8, !tbaa !33
  %23 = icmp eq ptr null, %22
  br i1 %23, label %24, label %43

24:                                               ; preds = %21
  %25 = load ptr, ptr %6, align 8, !tbaa !3
  %26 = load ptr, ptr %10, align 8, !tbaa !8
  %27 = call i32 (ptr, ptr, ...) @asprintf(ptr noundef %25, ptr noundef @.str.31, ptr noundef %26) #7
  %28 = icmp sgt i32 0, %27
  br i1 %28, label %29, label %36

29:                                               ; preds = %24
  %30 = load ptr, ptr %10, align 8, !tbaa !8
  %31 = load ptr, ptr %7, align 8, !tbaa !8
  %32 = icmp ne ptr %30, %31
  br i1 %32, label %33, label %35

33:                                               ; preds = %29
  %34 = load ptr, ptr %10, align 8, !tbaa !8
  call void @free(ptr noundef %34) #7
  br label %35

35:                                               ; preds = %33, %29
  store i32 -32, ptr %5, align 4
  store i32 1, ptr %11, align 4
  br label %64

36:                                               ; preds = %24
  %37 = load ptr, ptr %10, align 8, !tbaa !8
  %38 = load ptr, ptr %7, align 8, !tbaa !8
  %39 = icmp ne ptr %37, %38
  br i1 %39, label %40, label %42

40:                                               ; preds = %36
  %41 = load ptr, ptr %10, align 8, !tbaa !8
  call void @free(ptr noundef %41) #7
  br label %42

42:                                               ; preds = %40, %36
  store i32 0, ptr %5, align 4
  store i32 1, ptr %11, align 4
  br label %64

43:                                               ; preds = %21
  %44 = load ptr, ptr %6, align 8, !tbaa !3
  %45 = load ptr, ptr %10, align 8, !tbaa !8
  %46 = load ptr, ptr %8, align 8, !tbaa !33
  %47 = load i64, ptr %46, align 8, !tbaa !34
  %48 = call i32 (ptr, ptr, ...) @asprintf(ptr noundef %44, ptr noundef @.str.32, ptr noundef %45, i64 noundef %47) #7
  %49 = icmp sgt i32 0, %48
  br i1 %49, label %50, label %57

50:                                               ; preds = %43
  %51 = load ptr, ptr %10, align 8, !tbaa !8
  %52 = load ptr, ptr %7, align 8, !tbaa !8
  %53 = icmp ne ptr %51, %52
  br i1 %53, label %54, label %56

54:                                               ; preds = %50
  %55 = load ptr, ptr %10, align 8, !tbaa !8
  call void @free(ptr noundef %55) #7
  br label %56

56:                                               ; preds = %54, %50
  store i32 -32, ptr %5, align 4
  store i32 1, ptr %11, align 4
  br label %64

57:                                               ; preds = %43
  %58 = load ptr, ptr %10, align 8, !tbaa !8
  %59 = load ptr, ptr %7, align 8, !tbaa !8
  %60 = icmp ne ptr %58, %59
  br i1 %60, label %61, label %63

61:                                               ; preds = %57
  %62 = load ptr, ptr %10, align 8, !tbaa !8
  call void @free(ptr noundef %62) #7
  br label %63

63:                                               ; preds = %61, %57
  store i32 0, ptr %5, align 4
  store i32 1, ptr %11, align 4
  br label %64

64:                                               ; preds = %63, %56, %42, %35, %17
  call void @llvm.lifetime.end.p0(i64 8, ptr %10) #7
  %65 = load i32, ptr %5, align 4
  ret i32 %65
}