; Function Attrs: nounwind uwtable
define range(i32 -32, 1) i32 @pmix20_bfrop_print_int64(ptr noundef %0, ptr noundef %1, ptr noundef readonly captures(address_is_null) %2, i16 noundef zeroext %3) local_unnamed_addr #0 {
  %5 = alloca ptr, align 8
  call void @llvm.lifetime.start.p0(i64 8, ptr nonnull %5) #7
  %6 = icmp eq ptr %1, null
  br i1 %6, label %7, label %10

7:                                                ; preds = %4
  %8 = call i32 (ptr, ptr, ...) @asprintf(ptr noundef nonnull %5, ptr noundef nonnull @.str) #7
  %9 = icmp slt i32 %8, 0
  br i1 %9, label %23, label %11

10:                                               ; preds = %4
  store ptr %1, ptr %5, align 8, !tbaa !20
  br label %11

11:                                               ; preds = %7, %10
  %12 = icmp eq ptr %2, null
  %13 = load ptr, ptr %5, align 8, !tbaa !20
  br i1 %12, label %14, label %18

14:                                               ; preds = %11
  %15 = call i32 (ptr, ptr, ...) @asprintf(ptr noundef %0, ptr noundef nonnull @.str.31, ptr noundef %13) #7
  %16 = icmp slt i32 %15, 0
  %17 = load ptr, ptr %5, align 8, !tbaa !20
  %.not18 = icmp eq ptr %17, %1
  %. = select i1 %16, i32 -32, i32 0
  br i1 %.not18, label %23, label %.sink.split

18:                                               ; preds = %11
  %19 = load i64, ptr %2, align 8, !tbaa !26
  %20 = call i32 (ptr, ptr, ...) @asprintf(ptr noundef %0, ptr noundef nonnull @.str.32, ptr noundef %13, i64 noundef %19) #7
  %21 = icmp slt i32 %20, 0
  %22 = load ptr, ptr %5, align 8, !tbaa !20
  %.not16 = icmp eq ptr %22, %1
  %.19 = select i1 %21, i32 -32, i32 0
  br i1 %.not16, label %23, label %.sink.split

.sink.split:                                      ; preds = %18, %14
  %.sink = phi ptr [ %17, %14 ], [ %22, %18 ]
  %.0.ph = phi i32 [ %., %14 ], [ %.19, %18 ]
  call void @free(ptr noundef %.sink) #7
  br label %23

23:                                               ; preds = %18, %14, %.sink.split, %7
  %.0 = phi i32 [ -32, %7 ], [ %.0.ph, %.sink.split ], [ %., %14 ], [ %.19, %18 ]
  call void @llvm.lifetime.end.p0(i64 8, ptr nonnull %5) #7
  ret i32 %.0
}